target datalayout = "e-m:e-p270:32:32-p271:32:32-p272:64:64-i64:64-i128:128-f80:128-n8:16:32:64-S128"
target triple = "x86_64-pc-linux-gnu"

%"class.absl::lts_20240722::log_internal::Voidify" = type { i8 }
%"class.absl::lts_20240722::log_internal::LogMessage" = type { %"class.absl::lts_20240722::base_internal::ErrnoSaver", %"class.std::unique_ptr" }
%"class.absl::lts_20240722::base_internal::ErrnoSaver" = type { i32 }
%"class.std::unique_ptr" = type { %"struct.std::__uniq_ptr_data" }
%"struct.std::__uniq_ptr_data" = type { %"class.std::__uniq_ptr_impl" }
%"class.std::__uniq_ptr_impl" = type { %"class.std::tuple" }
%"class.std::tuple" = type { %"struct.std::_Tuple_impl" }
%"struct.std::_Tuple_impl" = type { %"struct.std::_Head_base.1" }
%"struct.std::_Head_base.1" = type { ptr }
%struct.alts_grpc_integrity_only_record_protocol = type { %struct.alts_grpc_record_protocol, i8, %struct.grpc_slice_buffer, ptr }
%struct.alts_grpc_record_protocol = type { ptr, ptr, %struct.grpc_slice_buffer, ptr, i64, i64, ptr, i64 }
%struct.grpc_slice_buffer = type { ptr, ptr, i64, i64, i64, [6 x %struct.grpc_slice] }
%struct.grpc_slice = type { ptr, %"union.grpc_slice::grpc_slice_data" }
%"union.grpc_slice::grpc_slice_data" = type { %"struct.grpc_slice::grpc_slice_data::grpc_slice_refcounted", [8 x i8] }
%"struct.grpc_slice::grpc_slice_data::grpc_slice_refcounted" = type { i64, ptr }
%"class.std::basic_string_view" = type { i64, ptr }

@.str = private unnamed_addr constant [175 x i8] c"generated/home/dtcxzyw/WorkSpace/Projects/compilers/llvm-opt-benchmark/bench/grpc/grpc/src/core/tsi/alts/zero_copy_frame_protector/alts_grpc_integrity_only_record_protocol.cc\00", align 1
@.str.1 = private unnamed_addr constant [63 x i8] c"Invalid nullptr arguments to alts_grpc_record_protocol create.\00", align 1

; Function Attrs: noinline noreturn nounwind uwtable
define linkonce_odr hidden void @__clang_call_terminate(ptr noundef %0) #11 comdat {
  %2 = call ptr @__cxa_begin_catch(ptr %0) #3
  call void @_ZSt9terminatev() #18
  unreachable
}

; Function Attrs: mustprogress nounwind uwtable
define linkonce_odr noundef i64 @_ZNSt11char_traitsIcE6lengthEPKc(ptr noundef %0) #6 comdat align 2 {
  %2 = alloca ptr, align 8
  store ptr %0, ptr %2, align 8, !tbaa !39
  %3 = load ptr, ptr %2, align 8, !tbaa !39
  %4 = call i64 @strlen(ptr noundef %3) #3
  ret i64 %4
}

; Function Attrs: mustprogress nounwind uwtable
define linkonce_odr void @_ZNSt17basic_string_viewIcSt11char_traitsIcEEC2EPKc(ptr noundef nonnull align 8 dereferenceable(16) %0, ptr noundef nonnull %1) unnamed_addr #6 comdat align 2 personality ptr @__gxx_personality_v0 {
  %3 = alloca ptr, align 8
  %4 = alloca ptr, align 8
  store ptr %0, ptr %3, align 8, !tbaa !68
  store ptr %1, ptr %4, align 8, !tbaa !39
  %5 = load ptr, ptr %3, align 8
  %6 = getelementptr inbounds nuw %"class.std::basic_string_view", ptr %5, i32 0, i32 0
  %7 = load ptr, ptr %4, align 8, !tbaa !39
  %8 = invoke noundef i64 @_ZNSt11char_traitsIcE6lengthEPKc(ptr noundef %7)
          to label %9 unwind label %12

9:                                                ; preds = %2
  store i64 %8, ptr %6, align 8, !tbaa !70
  %10 = getelementptr inbounds nuw %"class.std::basic_string_view", ptr %5, i32 0, i32 1
  %11 = load ptr, ptr %4, align 8, !tbaa !39
  store ptr %11, ptr %10, align 8, !tbaa !72
  ret void

12:                                               ; preds = %2
  %13 = landingpad { ptr, i32 }
          catch ptr null
  %14 = extractvalue { ptr, i32 } %13, 0
  call void @__clang_call_terminate(ptr %14) #18
  unreachable
}

; Function Attrs: mustprogress nounwind uwtable
define linkonce_odr void @_ZNKO4absl12lts_2024072212log_internal7VoidifyaaINS1_10LogMessageEEEvRKT_(ptr noundef nonnull align 1 dereferenceable(1) %0, ptr noundef nonnull align 8 dereferenceable(16) %1) #6 comdat align 2 {
  %3 = alloca ptr, align 8
  %4 = alloca ptr, align 8
  store ptr %0, ptr %3, align 8, !tbaa !35
  store ptr %1, ptr %4, align 8, !tbaa !37
  ret void
}

; Function Attrs: mustprogress uwtable
define linkonce_odr noundef nonnull align 8 dereferenceable(16) ptr @_ZN4absl12lts_2024072212log_internal10LogMessagelsILi63EEERS2_RAT__Kc(ptr noundef nonnull align 8 dereferenceable(16) %0, ptr noundef nonnull align 1 dereferenceable(63) %1) #4 comdat align 2 {
  %3 = alloca ptr, align 8
  %4 = alloca ptr, align 8
  %5 = alloca %"class.std::basic_string_view", align 8
  store ptr %0, ptr %3, align 8, !tbaa !37
  store ptr %1, ptr %4, align 8, !tbaa !39
  %6 = load ptr, ptr %3, align 8
  %7 = load ptr, ptr %4, align 8, !tbaa !39
  %8 = getelementptr inbounds [63 x i8], ptr %7, i64 0, i64 0
  call void @_ZNSt17basic_string_viewIcSt11char_traitsIcEEC2EPKc(ptr noundef nonnull align 8 dereferenceable(16) %5, ptr noundef %8) #3
  %9 = getelementptr inbounds nuw { i64, ptr }, ptr %5, i32 0, i32 0
  %10 = load i64, ptr %9, align 8
  %11 = getelementptr inbounds nuw { i64, ptr }, ptr %5, i32 0, i32 1
  %12 = load ptr, ptr %11, align 8
  call void @_ZN4absl12lts_2024072212log_internal10LogMessage19CopyToEncodedBufferILNS2_10StringTypeE0EEEvSt17basic_string_viewIcSt11char_traitsIcEE(ptr noundef nonnull align 8 dereferenceable(16) %6, i64 %10, ptr %12)
  ret ptr %6
}

; Function Attrs: mustprogress nounwind uwtable
define linkonce_odr noundef nonnull align 8 dereferenceable(16) ptr @_ZN4absl12lts_2024072212log_internal10LogMessage14InternalStreamEv(ptr noundef nonnull align 8 dereferenceable(16) %0) #6 comdat align 2 {
  %2 = alloca ptr, align 8
  store ptr %0, ptr %2, align 8, !tbaa !37
  %3 = load ptr, ptr %2, align 8
  ret ptr %3
}

; Function Attrs: mustprogress uwtable
define noundef i32 @_Z47alts_grpc_integrity_only_record_protocol_createP17gsec_aead_cryptermbbbPP25alts_grpc_record_protocol(ptr noundef %0, i64 noundef %1, i1 noundef zeroext %2, i1 noundef zeroext %3, i1 noundef zeroext %4, ptr noundef %5) #4 personality ptr @__gxx_personality_v0 {
  %7 = alloca i32, align 4
  %8 = alloca ptr, align 8
  %9 = alloca i64, align 8
  %10 = alloca i8, align 1
  %11 = alloca i8, align 1
  %12 = alloca i8, align 1
  %13 = alloca ptr, align 8
  %14 = alloca %"class.absl::lts_20240722::log_internal::Voidify", align 1
  %15 = alloca %"class.absl::lts_20240722::log_internal::LogMessage", align 8
  %16 = alloca ptr, align 8
  %17 = alloca i32, align 4
  %18 = alloca ptr, align 8
  %19 = alloca i32, align 4
  %20 = alloca i32, align 4
  store ptr %0, ptr %8, align 8, !tbaa !3
  store i64 %1, ptr %9, align 8, !tbaa !8
  %21 = zext i1 %2 to i8
  store i8 %21, ptr %10, align 1, !tbaa !10
  %22 = zext i1 %3 to i8
  store i8 %22, ptr %11, align 1, !tbaa !10
  %23 = zext i1 %4 to i8
  store i8 %23, ptr %12, align 1, !tbaa !10
  store ptr %5, ptr %13, align 8, !tbaa !12
  %24 = load ptr, ptr %8, align 8, !tbaa !3
  %25 = icmp eq ptr %24, null
  br i1 %25, label %29, label %26

26:                                               ; preds = %6
  %27 = load ptr, ptr %13, align 8, !tbaa !12
  %28 = icmp eq ptr %27, null
  br i1 %28, label %29, label %39

29:                                               ; preds = %26, %6
  call void @llvm.lifetime.start.p0(i64 1, ptr %14) #3
  call void @llvm.lifetime.start.p0(i64 16, ptr %15) #3
  call void @_ZN4absl12lts_2024072212log_internal10LogMessageC1EPKciNS2_8ErrorTagE(ptr noundef nonnull align 8 dereferenceable(16) %15, ptr noundef @.str, i32 noundef 201) #16
  %30 = invoke noundef nonnull align 8 dereferenceable(16) ptr @_ZN4absl12lts_2024072212log_internal10LogMessage14InternalStreamEv(ptr noundef nonnull align 8 dereferenceable(16) %15)
          to label %31 unwind label %35

31:                                               ; preds = %29
  %32 = invoke noundef nonnull align 8 dereferenceable(16) ptr @_ZN4absl12lts_2024072212log_internal10LogMessagelsILi63EEERS2_RAT__Kc(ptr noundef nonnull align 8 dereferenceable(16) %30, ptr noundef nonnull align 1 dereferenceable(63) @.str.1)
          to label %33 unwind label %35

33:                                               ; preds = %31
  invoke void @_ZNKO4absl12lts_2024072212log_internal7VoidifyaaINS1_10LogMessageEEEvRKT_(ptr noundef nonnull align 1 dereferenceable(1) %14, ptr noundef nonnull align 8 dereferenceable(16) %32)
          to label %34 unwind label %35

34:                                               ; preds = %33
  call void @_ZN4absl12lts_2024072212log_internal10LogMessageD1Ev(ptr noundef nonnull align 8 dereferenceable(16) %15) #17
  call void @llvm.lifetime.end.p0(i64 16, ptr %15) #3
  call void @llvm.lifetime.end.p0(i64 1, ptr %14) #3
  store i32 2, ptr %7, align 4
  br label %77

35:                                               ; preds = %33, %31, %29
  %36 = landingpad { ptr, i32 }
          cleanup
  %37 = extractvalue { ptr, i32 } %36, 0
  store ptr %37, ptr %16, align 8
  %38 = extractvalue { ptr, i32 } %36, 1
  store i32 %38, ptr %17, align 4
  call void @_ZN4absl12lts_2024072212log_internal10LogMessageD1Ev(ptr noundef nonnull align 8 dereferenceable(16) %15) #17
  call void @llvm.lifetime.end.p0(i64 16, ptr %15) #3
  call void @llvm.lifetime.end.p0(i64 1, ptr %14) #3
  br label %79

39:                                               ; preds = %26
  call void @llvm.lifetime.start.p0(i64 8, ptr %18) #3
  %40 = call ptr @gpr_zalloc(i64 noundef 536)
  store ptr %40, ptr %18, align 8, !tbaa !15
  call void @llvm.lifetime.start.p0(i64 4, ptr %19) #3
  %41 = load ptr, ptr %18, align 8, !tbaa !15
  %42 = getelementptr inbounds nuw %struct.alts_grpc_integrity_only_record_protocol, ptr %41, i32 0, i32 0
  %43 = load ptr, ptr %8, align 8, !tbaa !3
  %44 = load i64, ptr %9, align 8, !tbaa !8
  %45 = load i8, ptr %10, align 1, !tbaa !10, !range !17, !noundef !18
  %46 = trunc i8 %45 to i1
  %47 = load i8, ptr %11, align 1, !tbaa !10, !range !17, !noundef !18
  %48 = trunc i8 %47 to i1
  %49 = call noundef i32 @_Z30alts_grpc_record_protocol_initP25alts_grpc_record_protocolP17gsec_aead_cryptermbbb(ptr noundef %42, ptr noundef %43, i64 noundef %44, i1 noundef zeroext %46, i1 noundef zeroext true, i1 noundef zeroext %48)
  store i32 %49, ptr %19, align 4, !tbaa !19
  %50 = load i32, ptr %19, align 4, !tbaa !19
  %51 = icmp ne i32 %50, 0
  br i1 %51, label %52, label %55

52:                                               ; preds = %39
  %53 = load ptr, ptr %18, align 8, !tbaa !15
  call void @gpr_free(ptr noundef %53)
  %54 = load i32, ptr %19, align 4, !tbaa !19
  store i32 %54, ptr %7, align 4
  store i32 1, ptr %20, align 4
  br label %76

55:                                               ; preds = %39
  %56 = load i8, ptr %12, align 1, !tbaa !10, !range !17, !noundef !18
  %57 = trunc i8 %56 to i1
  %58 = load ptr, ptr %18, align 8, !tbaa !15
  %59 = getelementptr inbounds nuw %struct.alts_grpc_integrity_only_record_protocol, ptr %58, i32 0, i32 1
  %60 = zext i1 %57 to i8
  store i8 %60, ptr %59, align 8, !tbaa !21
  %61 = load ptr, ptr %18, align 8, !tbaa !15
  %62 = getelementptr inbounds nuw %struct.alts_grpc_integrity_only_record_protocol, ptr %61, i32 0, i32 2
  call void @grpc_slice_buffer_init(ptr noundef %62)
  %63 = load ptr, ptr %18, align 8, !tbaa !15
  %64 = getelementptr inbounds nuw %struct.alts_grpc_integrity_only_record_protocol, ptr %63, i32 0, i32 0
  %65 = getelementptr inbounds nuw %struct.alts_grpc_record_protocol, ptr %64, i32 0, i32 5
  %66 = load i64, ptr %65, align 8, !tbaa !30
  %67 = call ptr @gpr_malloc(i64 noundef %66)
  %68 = load ptr, ptr %18, align 8, !tbaa !15
  %69 = getelementptr inbounds nuw %struct.alts_grpc_integrity_only_record_protocol, ptr %68, i32 0, i32 3
  store ptr %67, ptr %69, align 8, !tbaa !31
  %70 = load ptr, ptr %18, align 8, !tbaa !15
  %71 = getelementptr inbounds nuw %struct.alts_grpc_integrity_only_record_protocol, ptr %70, i32 0, i32 0
  %72 = getelementptr inbounds nuw %struct.alts_grpc_record_protocol, ptr %71, i32 0, i32 0
  store ptr @_ZL47alts_grpc_integrity_only_record_protocol_vtable, ptr %72, align 8, !tbaa !32
  %73 = load ptr, ptr %18, align 8, !tbaa !15
  %74 = getelementptr inbounds nuw %struct.alts_grpc_integrity_only_record_protocol, ptr %73, i32 0, i32 0
  %75 = load ptr, ptr %13, align 8, !tbaa !12
  store ptr %74, ptr %75, align 8, !tbaa !33
  store i32 0, ptr %7, align 4
  store i32 1, ptr %20, align 4
  br label %76

76:                                               ; preds = %55, %52
  call void @llvm.lifetime.end.p0(i64 4, ptr %19) #3
  call void @llvm.lifetime.end.p0(i64 8, ptr %18) #3
  br label %77

77:                                               ; preds = %76, %34
  %78 = load i32, ptr %7, align 4
  ret i32 %78

79:                                               ; preds = %35
  %80 = load ptr, ptr %16, align 8
  %81 = load i32, ptr %17, align 4
  %82 = insertvalue { ptr, i32 } poison, ptr %80, 0
  %83 = insertvalue { ptr, i32 } %82, i32 %81, 1
  resume { ptr, i32 } %83
}