; Function Attrs: mustprogress uwtable
define noundef i32 @_Z47alts_grpc_integrity_only_record_protocol_createP17gsec_aead_cryptermbbbPP25alts_grpc_record_protocol(ptr noundef %0, i64 noundef %1, i1 noundef zeroext %2, i1 noundef zeroext %3, i1 noundef zeroext %4, ptr noundef writeonly %5) local_unnamed_addr #3 personality ptr @__gxx_personality_v0 {
  %7 = alloca %"class.absl::lts_20240722::log_internal::LogMessage", align 8
  %8 = zext i1 %4 to i8
  %9 = icmp eq ptr %0, null
  %10 = icmp eq ptr %5, null
  %or.cond = or i1 %9, %10
  br i1 %or.cond, label %11, label %14

11:                                               ; preds = %6
  call void @llvm.lifetime.start.p0(i64 16, ptr nonnull %7) #12
  call void @_ZN4absl12lts_2024072212log_internal10LogMessageC1EPKciNS2_8ErrorTagE(ptr noundef nonnull align 8 dereferenceable(16) %7, ptr noundef nonnull @.str, i32 noundef 201) #13
  invoke void @_ZN4absl12lts_2024072212log_internal10LogMessage19CopyToEncodedBufferILNS2_10StringTypeE0EEEvSt17basic_string_viewIcSt11char_traitsIcEE(ptr noundef nonnull align 8 dereferenceable(16) %7, i64 62, ptr nonnull @.str.1)
          to label %_ZN4absl12lts_2024072212log_internal10LogMessagelsILi63EEERS2_RAT__Kc.exit unwind label %12

_ZN4absl12lts_2024072212log_internal10LogMessagelsILi63EEERS2_RAT__Kc.exit: ; preds = %11
  call void @_ZN4absl12lts_2024072212log_internal10LogMessageD1Ev(ptr noundef nonnull align 8 dereferenceable(16) %7) #14
  call void @llvm.lifetime.end.p0(i64 16, ptr nonnull %7) #12
  br label %25

12:                                               ; preds = %11
  %13 = landingpad { ptr, i32 }
          cleanup
  call void @_ZN4absl12lts_2024072212log_internal10LogMessageD1Ev(ptr noundef nonnull align 8 dereferenceable(16) %7) #14
  call void @llvm.lifetime.end.p0(i64 16, ptr nonnull %7) #12
  resume { ptr, i32 } %13

14:                                               ; preds = %6
  %15 = tail call ptr @gpr_zalloc(i64 noundef 536)
  %16 = tail call noundef i32 @_Z30alts_grpc_record_protocol_initP25alts_grpc_record_protocolP17gsec_aead_cryptermbbb(ptr noundef %15, ptr noundef nonnull %0, i64 noundef %1, i1 noundef zeroext %2, i1 noundef zeroext true, i1 noundef zeroext %3)
  %.not = icmp eq i32 %16, 0
  br i1 %.not, label %18, label %17

17:                                               ; preds = %14
  tail call void @gpr_free(ptr noundef %15)
  br label %25

18:                                               ; preds = %14
  %19 = getelementptr inbounds nuw i8, ptr %15, i64 288
  store i8 %8, ptr %19, align 8, !tbaa !3
  %20 = getelementptr inbounds nuw i8, ptr %15, i64 296
  tail call void @grpc_slice_buffer_init(ptr noundef nonnull %20)
  %21 = getelementptr inbounds nuw i8, ptr %15, i64 264
  %22 = load i64, ptr %21, align 8, !tbaa !17
  %23 = tail call ptr @gpr_malloc(i64 noundef %22)
  %24 = getelementptr inbounds nuw i8, ptr %15, i64 528
  store ptr %23, ptr %24, align 8, !tbaa !18
  store ptr @_ZL47alts_grpc_integrity_only_record_protocol_vtable, ptr %15, align 8, !tbaa !19
  store ptr %15, ptr %5, align 8, !tbaa !20
  br label %25

25:                                               ; preds = %17, %18, %_ZN4absl12lts_2024072212log_internal10LogMessagelsILi63EEERS2_RAT__Kc.exit
  %.0 = phi i32 [ 2, %_ZN4absl12lts_2024072212log_internal10LogMessagelsILi63EEERS2_RAT__Kc.exit ], [ %16, %17 ], [ 0, %18 ]
  ret i32 %.0
}